target datalayout = "e-m:e-p270:32:32-p271:32:32-p272:64:64-i64:64-i128:128-f80:128-n8:16:32:64-S128"
target triple = "x86_64-pc-linux-gnu"

%"class.gmx::TextOutputFile" = type { %"class.gmx::TextOutputStream", %"class.std::unique_ptr.24" }
%"class.gmx::TextOutputStream" = type { ptr }
%"class.std::unique_ptr.24" = type { %"struct.std::__uniq_ptr_data.25" }
%"struct.std::__uniq_ptr_data.25" = type { %"class.std::__uniq_ptr_impl.26" }
%"class.std::__uniq_ptr_impl.26" = type { %"class.std::tuple.27" }
%"class.std::tuple.27" = type { %"struct.std::_Tuple_impl.28" }
%"struct.std::_Tuple_impl.28" = type { %"struct.std::_Head_base.31" }
%"struct.std::_Head_base.31" = type { ptr }

@__dso_handle = external hidden global i8
@_ZZN3gmx14TextOutputFile13standardErrorEvE12stderrObject = internal global %"class.gmx::TextOutputFile" zeroinitializer, align 8
@_ZGVZN3gmx14TextOutputFile13standardErrorEvE12stderrObject = internal global i64 0, align 8
@stderr = external global ptr, align 8
@_ZN3gmx14TextOutputFileC1EP8_IO_FILE = unnamed_addr alias void (ptr, ptr), ptr @_ZN3gmx14TextOutputFileC2EP8_IO_FILE
@_ZN3gmx14TextOutputFileD1Ev = unnamed_addr alias void (ptr), ptr @_ZN3gmx14TextOutputFileD2Ev

; Function Attrs: mustprogress uwtable
define noundef nonnull align 8 dereferenceable(16) ptr @_ZN3gmx14TextOutputFile13standardErrorEv() #2 align 2 personality ptr @__gxx_personality_v0 {
  %1 = alloca ptr, align 8
  %2 = alloca i32, align 4
  %3 = load atomic i8, ptr @_ZGVZN3gmx14TextOutputFile13standardErrorEvE12stderrObject acquire, align 8
  %4 = icmp eq i8 %3, 0
  br i1 %4, label %5, label %12, !prof !211

5:                                                ; preds = %0
  %6 = call i32 @__cxa_guard_acquire(ptr @_ZGVZN3gmx14TextOutputFile13standardErrorEvE12stderrObject) #19
  %7 = icmp ne i32 %6, 0
  br i1 %7, label %8, label %12

8:                                                ; preds = %5
  %9 = load ptr, ptr @stderr, align 8, !tbaa !13
  invoke void @_ZN3gmx14TextOutputFileC1EP8_IO_FILE(ptr noundef nonnull align 8 dereferenceable(16) @_ZZN3gmx14TextOutputFile13standardErrorEvE12stderrObject, ptr noundef %9)
          to label %10 unwind label %13

10:                                               ; preds = %8
  %11 = call i32 @__cxa_atexit(ptr @_ZN3gmx14TextOutputFileD1Ev, ptr @_ZZN3gmx14TextOutputFile13standardErrorEvE12stderrObject, ptr @__dso_handle) #19
  call void @__cxa_guard_release(ptr @_ZGVZN3gmx14TextOutputFile13standardErrorEvE12stderrObject) #19
  br label %12

12:                                               ; preds = %10, %5, %0
  ret ptr @_ZZN3gmx14TextOutputFile13standardErrorEvE12stderrObject

13:                                               ; preds = %8
  %14 = landingpad { ptr, i32 }
          cleanup
  %15 = extractvalue { ptr, i32 } %14, 0
  store ptr %15, ptr %1, align 8
  %16 = extractvalue { ptr, i32 } %14, 1
  store i32 %16, ptr %2, align 4
  call void @__cxa_guard_abort(ptr @_ZGVZN3gmx14TextOutputFile13standardErrorEvE12stderrObject) #19
  br label %17

17:                                               ; preds = %13
  %18 = load ptr, ptr %1, align 8
  %19 = load i32, ptr %2, align 4
  %20 = insertvalue { ptr, i32 } poison, ptr %18, 0
  %21 = insertvalue { ptr, i32 } %20, i32 %19, 1
  resume { ptr, i32 } %21
}