; Function Attrs: mustprogress uwtable
define noundef nonnull align 8 dereferenceable(16) ptr @_ZN3gmx14TextOutputFile13standardErrorEv() local_unnamed_addr #2 align 2 personality ptr @__gxx_personality_v0 {
  %1 = load atomic i8, ptr @_ZGVZN3gmx14TextOutputFile13standardErrorEvE12stderrObject acquire, align 8
  %2 = icmp eq i8 %1, 0
  br i1 %2, label %3, label %9, !prof !78

3:                                                ; preds = %0
  %4 = tail call i32 @__cxa_guard_acquire(ptr nonnull @_ZGVZN3gmx14TextOutputFile13standardErrorEvE12stderrObject) #22
  %.not = icmp eq i32 %4, 0
  br i1 %.not, label %9, label %5

5:                                                ; preds = %3
  %6 = load ptr, ptr @stderr, align 8, !tbaa !4
  invoke void @_ZN3gmx14TextOutputFileC1EP8_IO_FILE(ptr noundef nonnull align 8 dereferenceable(16) @_ZZN3gmx14TextOutputFile13standardErrorEvE12stderrObject, ptr noundef %6)
          to label %7 unwind label %10

7:                                                ; preds = %5
  %8 = tail call i32 @__cxa_atexit(ptr nonnull @_ZN3gmx14TextOutputFileD1Ev, ptr nonnull @_ZZN3gmx14TextOutputFile13standardErrorEvE12stderrObject, ptr nonnull @__dso_handle) #22
  tail call void @__cxa_guard_release(ptr nonnull @_ZGVZN3gmx14TextOutputFile13standardErrorEvE12stderrObject) #22
  br label %9

9:                                                ; preds = %7, %3, %0
  ret ptr @_ZZN3gmx14TextOutputFile13standardErrorEvE12stderrObject

10:                                               ; preds = %5
  %11 = landingpad { ptr, i32 }
          cleanup
  tail call void @__cxa_guard_abort(ptr nonnull @_ZGVZN3gmx14TextOutputFile13standardErrorEvE12stderrObject) #22
  resume { ptr, i32 } %11
}